Certificate:
    Data:
        Version: 3 (0x2)
        Serial Number: 15864177265045378972 (0xdc28e12ba8db979c)
    Signature Algorithm: sha256WithRSAEncryption
        Issuer: C=DE, L=Berlin, O=BMW, CN=connector.cx-preprod.edc.aws.bmw.cloud
        Validity
            Not Before: Jul 15 11:38:29 2022 GMT
            Not After : Jul 12 11:38:29 2032 GMT
        Subject: C=DE, L=Berlin, O=BMW, CN=connector.cx-preprod.edc.aws.bmw.cloud
        Subject Public Key Info:
            Public Key Algorithm: rsaEncryption
                Public-Key: (2048 bit)
                Modulus:
                    00:9f:04:36:74:74:8b:0f:2b:1b:f2:d2:e7:46:bc:
                    14:51:21:cd:17:2a:be:77:11:23:44:64:dc:9a:5c:
                    0d:33:22:b8:38:f3:f1:c9:9b:1c:eb:d0:62:d7:95:
                    cb:f8:39:52:6c:4c:73:e9:1a:74:6c:25:7e:13:d0:
                    6d:8f:d7:3d:4c:82:fc:ff:63:a5:b9:4d:a4:39:8b:
                    5f:57:bf:df:bb:4a:31:5d:a2:ae:af:fe:60:67:f9:
                    0f:07:49:4f:f5:27:af:c4:c8:fd:b6:c3:9c:86:ce:
                    e3:60:e1:15:ac:db:23:48:49:29:e0:ed:c9:d9:0c:
                    98:ce:2d:d0:f5:c2:ae:fd:11:d5:3f:a5:6c:f9:75:
                    e5:bd:3f:6c:58:74:16:19:60:c7:16:01:af:35:3f:
                    30:4f:80:20:cb:b1:b1:31:e1:0b:73:40:96:e0:45:
                    f7:bb:ee:c1:d3:19:e6:83:35:d0:3c:44:2d:f2:8e:
                    bc:6f:af:41:65:5a:68:01:63:e6:f1:f9:59:e0:cd:
                    57:99:0c:23:fa:76:40:1b:13:ef:2e:e3:d4:fe:23:
                    85:e3:96:7d:76:28:f4:b2:1f:53:d1:81:d3:72:a9:
                    a3:e6:c1:08:8c:cf:5a:6b:22:0a:62:06:8f:32:c3:
                    a5:64:aa:f5:2b:0b:dc:5c:0c:fc:a7:91:ce:5a:39:
                    af:67
                Exponent: 65537 (0x10001)
        X509v3 extensions:
            X509v3 Subject Key Identifier:
                A0:BE:B6:A7:BD:E1:AD:06:51:9B:D1:30:11:BD:B0:27:DB:1F:08:44
            X509v3 Authority Key Identifier:
                keyid:A0:BE:B6:A7:BD:E1:AD:06:51:9B:D1:30:11:BD:B0:27:DB:1F:08:44

            X509v3 Basic Constraints:
                CA:FALSE
            X509v3 Key Usage:
                Digital Signature, Key Encipherment
            Netscape Comment:
                OpenSSL Generated Certificate
    Signature Algorithm: sha256WithRSAEncryption
         20:7b:ae:6c:07:e8:69:bf:ad:e3:68:be:fd:11:0b:9b:0c:ad:
         60:66:d9:84:a9:35:ba:48:ac:98:78:9e:37:6e:82:14:85:bb:
         51:3d:e5:45:ef:23:2f:96:41:0e:04:ff:6e:84:2c:31:0c:6c:
         83:6f:d5:4d:41:e7:d7:e1:01:fb:41:c7:9a:4a:6c:d8:c5:47:
         b7:8b:3e:d6:fb:85:c1:e0:66:28:7b:71:02:3a:e1:b9:35:75:
         6b:12:0a:20:fb:53:81:ed:9d:c1:db:57:a1:31:05:c9:4f:6d:
         7b:a5:1c:4c:72:55:be:d5:7f:51:27:f8:b8:50:cf:81:c9:0c:
         93:1b:e8:bc:d6:11:d7:47:eb:10:5a:88:05:1c:e4:4e:6c:25:
         0d:ac:28:13:92:17:f4:97:c7:cc:99:58:10:8b:21:93:ae:d4:
         6c:d2:06:7b:a2:d2:88:b7:98:21:d7:90:f2:68:5e:f5:05:0c:
         aa:0a:f0:16:2e:ba:de:4d:cc:a2:c7:a6:55:6a:76:6f:d8:97:
         cc:0c:67:25:d2:d6:8f:3f:6f:87:ca:24:af:7e:0e:9b:7c:6b:
         08:f8:85:8b:a3:37:9c:c9:06:70:f7:7f:d2:71:10:43:29:ec:
         9c:19:f0:60:b8:97:1e:22:c7:eb:f5:b8:19:b6:e1:45:5a:b9:
         21:a3:a7:71
-----BEGIN CERTIFICATE-----
MIIDxzCCAq+gAwIBAgIJANwo4Suo25ecMA0GCSqGSIb3DQEBCwUAMF0xCzAJBgNV
BAYTAkRFMQ8wDQYDVQQHDAZCZXJsaW4xDDAKBgNVBAoMA0JNVzEvMC0GA1UEAwwm
Y29ubmVjdG9yLmN4LXByZXByb2QuZWRjLmF3cy5ibXcuY2xvdWQwHhcNMjIwNzE1
MTEzODI5WhcNMzIwNzEyMTEzODI5WjBdMQswCQYDVQQGEwJERTEPMA0GA1UEBwwG
QmVybGluMQwwCgYDVQQKDANCTVcxLzAtBgNVBAMMJmNvbm5lY3Rvci5jeC1wcmVw
cm9kLmVkYy5hd3MuYm13LmNsb3VkMIIBIjANBgkqhkiG9w0BAQEFAAOCAQ8AMIIB
CgKCAQEAnwQ2dHSLDysb8tLnRrwUUSHNFyq+dxEjRGTcmlwNMyK4OPPxyZsc69Bi
15XL+DlSbExz6Rp0bCV+E9Btj9c9TIL8/2OluU2kOYtfV7/fu0oxXaKur/5gZ/kP
B0lP9SevxMj9tsOchs7jYOEVrNsjSEkp4O3J2QyYzi3Q9cKu/RHVP6Vs+XXlvT9s
WHQWGWDHFgGvNT8wT4Agy7GxMeELc0CW4EX3u+7B0xnmgzXQPEQt8o68b69BZVpo
AWPm8flZ4M1XmQwj+nZAGxPvLuPU/iOF45Z9dij0sh9T0YHTcqmj5sEIjM9aayIK
YgaPMsOlZKr1KwvcXAz8p5HOWjmvZwIDAQABo4GJMIGGMB0GA1UdDgQWBBSgvran
veGtBlGb0TARvbAn2x8IRDAfBgNVHSMEGDAWgBSgvranveGtBlGb0TARvbAn2x8I
RDAJBgNVHRMEAjAAMAsGA1UdDwQEAwIFoDAsBglghkgBhvhCAQ0EHxYdT3BlblNT
TCBHZW5lcmF0ZWQgQ2VydGlmaWNhdGUwDQYJKoZIhvcNAQELBQADggEBACB7rmwH
6Gm/reNovv0RC5sMrWBm2YSpNbpIrJh4njdughSFu1E95UXvIy+WQQ4E/26ELDEM
bINv1U1B59fhAftBx5pKbNjFR7eLPtb7hcHgZih7cQI64bk1dWsSCiD7U4HtncHb
V6ExBclPbXulHExyVb7Vf1En+LhQz4HJDJMb6LzWEddH6xBaiAUc5E5sJQ2sKBOS
F/SXx8yZWBCLIZOu1GzSBnui0oi3mCHXkPJoXvUFDKoK8BYuut5NzKLHplVqdm/Y
l8wMZyXS1o8/b4fKJK9+Dpt8awj4hYujN5zJBnD3f9JxEEMp7JwZ8GC4lx4ix+v1
uBm24UVauSGjp3E=
-----END CERTIFICATE-----